target datalayout = "e-m:e-p270:32:32-p271:32:32-p272:64:64-i64:64-i128:128-f80:128-n8:16:32:64-S128"
target triple = "x86_64-pc-linux-gnu"

%struct.evthread_lock_callbacks = type { i32, i32, ptr, ptr, ptr, ptr }
%struct.ev_token_bucket = type { i64, i64, i32 }
%struct.ev_token_bucket_cfg = type { i64, i64, i64, i64, %struct.timeval, i32 }
%struct.timeval = type { i64, i64 }
%struct.event = type { %struct.event_callback, %union.anon.0, i32, i16, i16, ptr, %union.anon.2, %struct.timeval }
%union.anon.0 = type { %struct.anon.1 }
%struct.anon.1 = type { ptr, ptr }
%union.anon.2 = type { %struct.anon.3 }
%struct.anon.3 = type { %struct.anon.4, %struct.timeval }
%struct.anon.4 = type { ptr, ptr }
%struct.event_callback = type { %struct.anon, i16, i8, i8, %union.anon, ptr }
%struct.anon = type { ptr, ptr }
%union.anon = type { ptr }
%struct.bufferevent_rate_limit_group = type { %struct.rlim_group_member_list, %struct.ev_token_bucket, %struct.ev_token_bucket_cfg, i8, i64, i64, i32, i64, i64, %struct.event, %struct.evutil_weakrand_state, ptr }
%struct.rlim_group_member_list = type { ptr }
%struct.evutil_weakrand_state = type { i32 }

@evthread_lock_fns_ = external global %struct.evthread_lock_callbacks, align 8

; Function Attrs: nounwind uwtable
define i32 @bufferevent_rate_limit_group_set_min_share(ptr noundef %0, i64 noundef %1) #0 {
  %3 = alloca i32, align 4
  %4 = alloca ptr, align 8
  %5 = alloca i64, align 8
  store ptr %0, ptr %4, align 8
  store i64 %1, ptr %5, align 8
  %6 = load i64, ptr %5, align 8
  %7 = icmp ugt i64 %6, 9223372036854775807
  br i1 %7, label %8, label %9

8:                                                ; preds = %2
  store i32 -1, ptr %3, align 4
  br label %40

9:                                                ; preds = %2
  %10 = load i64, ptr %5, align 8
  %11 = load ptr, ptr %4, align 8
  %12 = getelementptr inbounds nuw %struct.bufferevent_rate_limit_group, ptr %11, i32 0, i32 8
  store i64 %10, ptr %12, align 8
  %13 = load i64, ptr %5, align 8
  %14 = load ptr, ptr %4, align 8
  %15 = getelementptr inbounds nuw %struct.bufferevent_rate_limit_group, ptr %14, i32 0, i32 2
  %16 = getelementptr inbounds nuw %struct.ev_token_bucket_cfg, ptr %15, i32 0, i32 0
  %17 = load i64, ptr %16, align 8
  %18 = icmp ugt i64 %13, %17
  br i1 %18, label %19, label %24

19:                                               ; preds = %9
  %20 = load ptr, ptr %4, align 8
  %21 = getelementptr inbounds nuw %struct.bufferevent_rate_limit_group, ptr %20, i32 0, i32 2
  %22 = getelementptr inbounds nuw %struct.ev_token_bucket_cfg, ptr %21, i32 0, i32 0
  %23 = load i64, ptr %22, align 8
  store i64 %23, ptr %5, align 8
  br label %24

24:                                               ; preds = %19, %9
  %25 = load i64, ptr %5, align 8
  %26 = load ptr, ptr %4, align 8
  %27 = getelementptr inbounds nuw %struct.bufferevent_rate_limit_group, ptr %26, i32 0, i32 2
  %28 = getelementptr inbounds nuw %struct.ev_token_bucket_cfg, ptr %27, i32 0, i32 2
  %29 = load i64, ptr %28, align 8
  %30 = icmp ugt i64 %25, %29
  br i1 %30, label %31, label %36

31:                                               ; preds = %24
  %32 = load ptr, ptr %4, align 8
  %33 = getelementptr inbounds nuw %struct.bufferevent_rate_limit_group, ptr %32, i32 0, i32 2
  %34 = getelementptr inbounds nuw %struct.ev_token_bucket_cfg, ptr %33, i32 0, i32 2
  %35 = load i64, ptr %34, align 8
  store i64 %35, ptr %5, align 8
  br label %36

36:                                               ; preds = %31, %24
  %37 = load i64, ptr %5, align 8
  %38 = load ptr, ptr %4, align 8
  %39 = getelementptr inbounds nuw %struct.bufferevent_rate_limit_group, ptr %38, i32 0, i32 7
  store i64 %37, ptr %39, align 8
  store i32 0, ptr %3, align 4
  br label %40

40:                                               ; preds = %36, %8
  %41 = load i32, ptr %3, align 4
  ret i32 %41
}

; Function Attrs: nounwind uwtable
define i32 @bufferevent_rate_limit_group_set_cfg(ptr noundef %0, ptr noundef %1) #0 {
  %3 = alloca i32, align 4
  %4 = alloca ptr, align 8
  %5 = alloca ptr, align 8
  %6 = alloca i32, align 4
  %7 = alloca i32, align 4
  store ptr %0, ptr %4, align 8
  store ptr %1, ptr %5, align 8
  call void @llvm.lifetime.start.p0(i64 4, ptr %6) #5
  %8 = load ptr, ptr %4, align 8
  %9 = icmp ne ptr %8, null
  br i1 %9, label %10, label %13

10:                                               ; preds = %2
  %11 = load ptr, ptr %5, align 8
  %12 = icmp ne ptr %11, null
  br i1 %12, label %14, label %13

13:                                               ; preds = %10, %2
  store i32 -1, ptr %3, align 4
  store i32 1, ptr %7, align 4
  br label %128

14:                                               ; preds = %10
  br label %15

15:                                               ; preds = %14
  %16 = load ptr, ptr %4, align 8
  %17 = getelementptr inbounds nuw %struct.bufferevent_rate_limit_group, ptr %16, i32 0, i32 11
  %18 = load ptr, ptr %17, align 8
  %19 = icmp ne ptr %18, null
  br i1 %19, label %20, label %26

20:                                               ; preds = %15
  %21 = load ptr, ptr getelementptr inbounds nuw (%struct.evthread_lock_callbacks, ptr @evthread_lock_fns_, i32 0, i32 4), align 8
  %22 = load ptr, ptr %4, align 8
  %23 = getelementptr inbounds nuw %struct.bufferevent_rate_limit_group, ptr %22, i32 0, i32 11
  %24 = load ptr, ptr %23, align 8
  %25 = call i32 %21(i32 noundef 0, ptr noundef %24)
  br label %26

26:                                               ; preds = %20, %15
  br label %27

27:                                               ; preds = %26
  br label %28

28:                                               ; preds = %27
  %29 = load ptr, ptr %4, align 8
  %30 = getelementptr inbounds nuw %struct.bufferevent_rate_limit_group, ptr %29, i32 0, i32 2
  %31 = getelementptr inbounds nuw %struct.ev_token_bucket_cfg, ptr %30, i32 0, i32 4
  %32 = getelementptr inbounds nuw %struct.timeval, ptr %31, i32 0, i32 0
  %33 = load i64, ptr %32, align 8
  %34 = load ptr, ptr %5, align 8
  %35 = getelementptr inbounds nuw %struct.ev_token_bucket_cfg, ptr %34, i32 0, i32 4
  %36 = getelementptr inbounds nuw %struct.timeval, ptr %35, i32 0, i32 0
  %37 = load i64, ptr %36, align 8
  %38 = icmp eq i64 %33, %37
  br i1 %38, label %39, label %51

39:                                               ; preds = %28
  %40 = load ptr, ptr %4, align 8
  %41 = getelementptr inbounds nuw %struct.bufferevent_rate_limit_group, ptr %40, i32 0, i32 2
  %42 = getelementptr inbounds nuw %struct.ev_token_bucket_cfg, ptr %41, i32 0, i32 4
  %43 = getelementptr inbounds nuw %struct.timeval, ptr %42, i32 0, i32 1
  %44 = load i64, ptr %43, align 8
  %45 = load ptr, ptr %5, align 8
  %46 = getelementptr inbounds nuw %struct.ev_token_bucket_cfg, ptr %45, i32 0, i32 4
  %47 = getelementptr inbounds nuw %struct.timeval, ptr %46, i32 0, i32 1
  %48 = load i64, ptr %47, align 8
  %49 = icmp eq i64 %44, %48
  %50 = zext i1 %49 to i32
  br label %63

51:                                               ; preds = %28
  %52 = load ptr, ptr %4, align 8
  %53 = getelementptr inbounds nuw %struct.bufferevent_rate_limit_group, ptr %52, i32 0, i32 2
  %54 = getelementptr inbounds nuw %struct.ev_token_bucket_cfg, ptr %53, i32 0, i32 4
  %55 = getelementptr inbounds nuw %struct.timeval, ptr %54, i32 0, i32 0
  %56 = load i64, ptr %55, align 8
  %57 = load ptr, ptr %5, align 8
  %58 = getelementptr inbounds nuw %struct.ev_token_bucket_cfg, ptr %57, i32 0, i32 4
  %59 = getelementptr inbounds nuw %struct.timeval, ptr %58, i32 0, i32 0
  %60 = load i64, ptr %59, align 8
  %61 = icmp eq i64 %56, %60
  %62 = zext i1 %61 to i32
  br label %63

63:                                               ; preds = %51, %39
  %64 = phi i32 [ %50, %39 ], [ %62, %51 ]
  store i32 %64, ptr %6, align 4
  %65 = load ptr, ptr %4, align 8
  %66 = getelementptr inbounds nuw %struct.bufferevent_rate_limit_group, ptr %65, i32 0, i32 2
  %67 = load ptr, ptr %5, align 8
  call void @llvm.memcpy.p0.p0.i64(ptr align 8 %66, ptr align 8 %67, i64 56, i1 false)
  %68 = load ptr, ptr %4, align 8
  %69 = getelementptr inbounds nuw %struct.bufferevent_rate_limit_group, ptr %68, i32 0, i32 1
  %70 = getelementptr inbounds nuw %struct.ev_token_bucket, ptr %69, i32 0, i32 0
  %71 = load i64, ptr %70, align 8
  %72 = load ptr, ptr %5, align 8
  %73 = getelementptr inbounds nuw %struct.ev_token_bucket_cfg, ptr %72, i32 0, i32 1
  %74 = load i64, ptr %73, align 8
  %75 = icmp sgt i64 %71, %74
  br i1 %75, label %76, label %83

76:                                               ; preds = %63
  %77 = load ptr, ptr %5, align 8
  %78 = getelementptr inbounds nuw %struct.ev_token_bucket_cfg, ptr %77, i32 0, i32 1
  %79 = load i64, ptr %78, align 8
  %80 = load ptr, ptr %4, align 8
  %81 = getelementptr inbounds nuw %struct.bufferevent_rate_limit_group, ptr %80, i32 0, i32 1
  %82 = getelementptr inbounds nuw %struct.ev_token_bucket, ptr %81, i32 0, i32 0
  store i64 %79, ptr %82, align 8
  br label %83

83:                                               ; preds = %76, %63
  %84 = load ptr, ptr %4, align 8
  %85 = getelementptr inbounds nuw %struct.bufferevent_rate_limit_group, ptr %84, i32 0, i32 1
  %86 = getelementptr inbounds nuw %struct.ev_token_bucket, ptr %85, i32 0, i32 1
  %87 = load i64, ptr %86, align 8
  %88 = load ptr, ptr %5, align 8
  %89 = getelementptr inbounds nuw %struct.ev_token_bucket_cfg, ptr %88, i32 0, i32 3
  %90 = load i64, ptr %89, align 8
  %91 = icmp sgt i64 %87, %90
  br i1 %91, label %92, label %99

92:                                               ; preds = %83
  %93 = load ptr, ptr %5, align 8
  %94 = getelementptr inbounds nuw %struct.ev_token_bucket_cfg, ptr %93, i32 0, i32 3
  %95 = load i64, ptr %94, align 8
  %96 = load ptr, ptr %4, align 8
  %97 = getelementptr inbounds nuw %struct.bufferevent_rate_limit_group, ptr %96, i32 0, i32 1
  %98 = getelementptr inbounds nuw %struct.ev_token_bucket, ptr %97, i32 0, i32 1
  store i64 %95, ptr %98, align 8
  br label %99

99:                                               ; preds = %92, %83
  %100 = load i32, ptr %6, align 4
  %101 = icmp ne i32 %100, 0
  br i1 %101, label %108, label %102

102:                                              ; preds = %99
  %103 = load ptr, ptr %4, align 8
  %104 = getelementptr inbounds nuw %struct.bufferevent_rate_limit_group, ptr %103, i32 0, i32 9
  %105 = load ptr, ptr %5, align 8
  %106 = getelementptr inbounds nuw %struct.ev_token_bucket_cfg, ptr %105, i32 0, i32 4
  %107 = call i32 @event_add(ptr noundef %104, ptr noundef %106)
  br label %108

108:                                              ; preds = %102, %99
  %109 = load ptr, ptr %4, align 8
  %110 = load ptr, ptr %4, align 8
  %111 = getelementptr inbounds nuw %struct.bufferevent_rate_limit_group, ptr %110, i32 0, i32 8
  %112 = load i64, ptr %111, align 8
  %113 = call i32 @bufferevent_rate_limit_group_set_min_share(ptr noundef %109, i64 noundef %112)
  br label %114

114:                                              ; preds = %108
  %115 = load ptr, ptr %4, align 8
  %116 = getelementptr inbounds nuw %struct.bufferevent_rate_limit_group, ptr %115, i32 0, i32 11
  %117 = load ptr, ptr %116, align 8
  %118 = icmp ne ptr %117, null
  br i1 %118, label %119, label %125

119:                                              ; preds = %114
  %120 = load ptr, ptr getelementptr inbounds nuw (%struct.evthread_lock_callbacks, ptr @evthread_lock_fns_, i32 0, i32 5), align 8
  %121 = load ptr, ptr %4, align 8
  %122 = getelementptr inbounds nuw %struct.bufferevent_rate_limit_group, ptr %121, i32 0, i32 11
  %123 = load ptr, ptr %122, align 8
  %124 = call i32 %120(i32 noundef 0, ptr noundef %123)
  br label %125

125:                                              ; preds = %119, %114
  br label %126

126:                                              ; preds = %125
  br label %127

127:                                              ; preds = %126
  store i32 0, ptr %3, align 4
  store i32 1, ptr %7, align 4
  br label %128

128:                                              ; preds = %127, %13
  call void @llvm.lifetime.end.p0(i64 4, ptr %6) #5
  %129 = load i32, ptr %3, align 4
  ret i32 %129
}