; Function Attrs: nounwind uwtable
define range(i32 -1, 1) i32 @bufferevent_rate_limit_group_set_cfg(ptr noundef %0, ptr noundef %1) local_unnamed_addr #3 {
  %3 = icmp ne ptr %0, null
  %4 = icmp ne ptr %1, null
  %or.cond = and i1 %3, %4
  br i1 %or.cond, label %5, label %55

5:                                                ; preds = %2
  %6 = getelementptr inbounds nuw i8, ptr %0, i64 264
  %7 = load ptr, ptr %6, align 8
  %.not = icmp eq ptr %7, null
  br i1 %.not, label %11, label %8

8:                                                ; preds = %5
  %9 = load ptr, ptr getelementptr inbounds nuw (i8, ptr @evthread_lock_fns_, i64 24), align 8
  %10 = tail call i32 %9(i32 noundef 0, ptr noundef nonnull %7) #10
  br label %11

11:                                               ; preds = %8, %5
  %12 = getelementptr inbounds nuw i8, ptr %0, i64 32
  %13 = getelementptr inbounds nuw i8, ptr %0, i64 64
  %14 = load i64, ptr %13, align 8
  %15 = getelementptr inbounds nuw i8, ptr %1, i64 32
  %16 = load i64, ptr %15, align 8
  %17 = icmp eq i64 %14, %16
  br i1 %17, label %18, label %24

18:                                               ; preds = %11
  %19 = getelementptr inbounds nuw i8, ptr %0, i64 72
  %20 = load i64, ptr %19, align 8
  %21 = getelementptr inbounds nuw i8, ptr %1, i64 40
  %22 = load i64, ptr %21, align 8
  %23 = icmp ne i64 %20, %22
  br label %24

24:                                               ; preds = %11, %18
  %.not34 = phi i1 [ %23, %18 ], [ true, %11 ]
  tail call void @llvm.memcpy.p0.p0.i64(ptr noundef nonnull align 8 dereferenceable(56) %12, ptr noundef nonnull align 8 dereferenceable(56) %1, i64 56, i1 false)
  %25 = getelementptr inbounds nuw i8, ptr %0, i64 8
  %26 = load i64, ptr %25, align 8
  %27 = getelementptr inbounds nuw i8, ptr %1, i64 8
  %28 = load i64, ptr %27, align 8
  %29 = icmp sgt i64 %26, %28
  br i1 %29, label %30, label %31

30:                                               ; preds = %24
  store i64 %28, ptr %25, align 8
  br label %31

31:                                               ; preds = %30, %24
  %32 = getelementptr inbounds nuw i8, ptr %0, i64 16
  %33 = load i64, ptr %32, align 8
  %34 = getelementptr inbounds nuw i8, ptr %1, i64 24
  %35 = load i64, ptr %34, align 8
  %36 = icmp sgt i64 %33, %35
  br i1 %36, label %37, label %38

37:                                               ; preds = %31
  store i64 %35, ptr %32, align 8
  br label %38

38:                                               ; preds = %37, %31
  br i1 %.not34, label %39, label %42

39:                                               ; preds = %38
  %40 = getelementptr inbounds nuw i8, ptr %0, i64 136
  %41 = tail call i32 @event_add(ptr noundef nonnull %40, ptr noundef nonnull %15) #10
  br label %42

42:                                               ; preds = %39, %38
  %43 = getelementptr inbounds nuw i8, ptr %0, i64 128
  %44 = load i64, ptr %43, align 8
  %45 = icmp slt i64 %44, 0
  br i1 %45, label %bufferevent_rate_limit_group_set_min_share.exit, label %46

46:                                               ; preds = %42
  %47 = load i64, ptr %12, align 8
  %spec.select.i = tail call i64 @llvm.umin.i64(i64 %44, i64 %47)
  %48 = getelementptr inbounds nuw i8, ptr %0, i64 48
  %49 = load i64, ptr %48, align 8
  %.1.i = tail call i64 @llvm.umin.i64(i64 %spec.select.i, i64 %49)
  %50 = getelementptr inbounds nuw i8, ptr %0, i64 120
  store i64 %.1.i, ptr %50, align 8
  br label %bufferevent_rate_limit_group_set_min_share.exit

bufferevent_rate_limit_group_set_min_share.exit:  ; preds = %42, %46
  %51 = load ptr, ptr %6, align 8
  %.not35 = icmp eq ptr %51, null
  br i1 %.not35, label %55, label %52

52:                                               ; preds = %bufferevent_rate_limit_group_set_min_share.exit
  %53 = load ptr, ptr getelementptr inbounds nuw (i8, ptr @evthread_lock_fns_, i64 32), align 8
  %54 = tail call i32 %53(i32 noundef 0, ptr noundef nonnull %51) #10
  br label %55

55:                                               ; preds = %bufferevent_rate_limit_group_set_min_share.exit, %52, %2
  %.0 = phi i32 [ -1, %2 ], [ 0, %52 ], [ 0, %bufferevent_rate_limit_group_set_min_share.exit ]
  ret i32 %.0
}